target datalayout = "e-m:e-p270:32:32-p271:32:32-p272:64:64-i64:64-i128:128-f80:128-n8:16:32:64-S128"
target triple = "x86_64-unknown-linux-gnu"

%"class.icu_75::CheckedArrayByteSink" = type <{ %"class.icu_75::ByteSink", ptr, i32, i32, i32, i8, [3 x i8] }>
%"class.icu_75::ByteSink" = type { ptr }

; Function Attrs: mustprogress nounwind uwtable
define noundef ptr @_ZN6icu_7520CheckedArrayByteSink15GetAppendBufferEiiPciPi(ptr noundef nonnull align 8 dereferenceable(29) %this, i32 noundef %min_capacity, i32 noundef %0, ptr noundef %scratch, i32 noundef %scratch_capacity, ptr noundef %result_capacity) unnamed_addr #0 align 2 {
entry:
  %retval = alloca ptr, align 8
  %this.addr = alloca ptr, align 8
  %min_capacity.addr = alloca i32, align 4
  %.addr = alloca i32, align 4
  %scratch.addr = alloca ptr, align 8
  %scratch_capacity.addr = alloca i32, align 4
  %result_capacity.addr = alloca ptr, align 8
  %available = alloca i32, align 4
  store ptr %this, ptr %this.addr, align 8
  store i32 %min_capacity, ptr %min_capacity.addr, align 4
  store i32 %0, ptr %.addr, align 4
  store ptr %scratch, ptr %scratch.addr, align 8
  store i32 %scratch_capacity, ptr %scratch_capacity.addr, align 4
  store ptr %result_capacity, ptr %result_capacity.addr, align 8
  %this1 = load ptr, ptr %this.addr, align 8
  %1 = load i32, ptr %min_capacity.addr, align 4
  %cmp = icmp slt i32 %1, 1
  br i1 %cmp, label %if.then, label %lor.lhs.false

lor.lhs.false:                                    ; preds = %entry
  %2 = load i32, ptr %scratch_capacity.addr, align 4
  %3 = load i32, ptr %min_capacity.addr, align 4
  %cmp2 = icmp slt i32 %2, %3
  br i1 %cmp2, label %if.then, label %if.end

if.then:                                          ; preds = %lor.lhs.false, %entry
  %4 = load ptr, ptr %result_capacity.addr, align 8
  store i32 0, ptr %4, align 4
  store ptr null, ptr %retval, align 8
  br label %return

if.end:                                           ; preds = %lor.lhs.false
  %capacity_ = getelementptr inbounds %"class.icu_75::CheckedArrayByteSink", ptr %this1, i32 0, i32 2
  %5 = load i32, ptr %capacity_, align 8
  %size_ = getelementptr inbounds %"class.icu_75::CheckedArrayByteSink", ptr %this1, i32 0, i32 3
  %6 = load i32, ptr %size_, align 4
  %sub = sub nsw i32 %5, %6
  store i32 %sub, ptr %available, align 4
  %7 = load i32, ptr %available, align 4
  %8 = load i32, ptr %min_capacity.addr, align 4
  %cmp3 = icmp sge i32 %7, %8
  br i1 %cmp3, label %if.then4, label %if.else

if.then4:                                         ; preds = %if.end
  %9 = load i32, ptr %available, align 4
  %10 = load ptr, ptr %result_capacity.addr, align 8
  store i32 %9, ptr %10, align 4
  %outbuf_ = getelementptr inbounds %"class.icu_75::CheckedArrayByteSink", ptr %this1, i32 0, i32 1
  %11 = load ptr, ptr %outbuf_, align 8
  %size_5 = getelementptr inbounds %"class.icu_75::CheckedArrayByteSink", ptr %this1, i32 0, i32 3
  %12 = load i32, ptr %size_5, align 4
  %idx.ext = sext i32 %12 to i64
  %add.ptr = getelementptr inbounds i8, ptr %11, i64 %idx.ext
  store ptr %add.ptr, ptr %retval, align 8
  br label %return

if.else:                                          ; preds = %if.end
  %13 = load i32, ptr %scratch_capacity.addr, align 4
  %14 = load ptr, ptr %result_capacity.addr, align 8
  store i32 %13, ptr %14, align 4
  %15 = load ptr, ptr %scratch.addr, align 8
  store ptr %15, ptr %retval, align 8
  br label %return

return:                                           ; preds = %if.else, %if.then4, %if.then
  %16 = load ptr, ptr %retval, align 8
  ret ptr %16
}