; Function Attrs: mustprogress nofree norecurse nosync nounwind willreturn memory(argmem: readwrite) uwtable
define noundef ptr @_ZN6icu_7520CheckedArrayByteSink15GetAppendBufferEiiPciPi(ptr nocapture noundef nonnull readonly align 8 dereferenceable(29) %this, i32 noundef %min_capacity, i32 %0, ptr noundef readnone %scratch, i32 noundef %scratch_capacity, ptr nocapture noundef writeonly %result_capacity) unnamed_addr #8 align 2 {
entry:
  %cmp = icmp slt i32 %min_capacity, 1
  %cmp2 = icmp slt i32 %scratch_capacity, %min_capacity
  %or.cond = or i1 %cmp, %cmp2
  br i1 %or.cond, label %if.then, label %if.end

if.then:                                          ; preds = %entry
  store i32 0, ptr %result_capacity, align 4
  br label %return

if.end:                                           ; preds = %entry
  %capacity_ = getelementptr inbounds i8, ptr %this, i64 16
  %1 = load i32, ptr %capacity_, align 8
  %size_ = getelementptr inbounds i8, ptr %this, i64 20
  %2 = load i32, ptr %size_, align 4
  %sub = sub nsw i32 %1, %2
  %cmp3.not = icmp slt i32 %sub, %min_capacity
  br i1 %cmp3.not, label %if.else, label %if.then4

if.then4:                                         ; preds = %if.end
  store i32 %sub, ptr %result_capacity, align 4
  %outbuf_ = getelementptr inbounds i8, ptr %this, i64 8
  %3 = load ptr, ptr %outbuf_, align 8
  %4 = load i32, ptr %size_, align 4
  %idx.ext = sext i32 %4 to i64
  %add.ptr = getelementptr inbounds i8, ptr %3, i64 %idx.ext
  br label %return

if.else:                                          ; preds = %if.end
  store i32 %scratch_capacity, ptr %result_capacity, align 4
  br label %return

return:                                           ; preds = %if.else, %if.then4, %if.then
  %retval.0 = phi ptr [ null, %if.then ], [ %add.ptr, %if.then4 ], [ %scratch, %if.else ]
  ret ptr %retval.0
}